target datalayout = "e-m:e-p270:32:32-p271:32:32-p272:64:64-i64:64-i128:128-f80:128-n8:16:32:64-S128"
target triple = "x86_64-pc-linux-gnu"

; Function Attrs: nounwind uwtable
define internal i32 @cmp_base(ptr noundef %0, ptr noundef %1, ptr noundef %2, ptr noundef %3, ptr noundef %4, ptr noundef %5, ptr noundef %6, i8 noundef signext %7, ptr noundef %8, ptr noundef %9) #0 {
  %11 = alloca i32, align 4
  %12 = alloca ptr, align 8
  %13 = alloca ptr, align 8
  %14 = alloca ptr, align 8
  %15 = alloca ptr, align 8
  %16 = alloca ptr, align 8
  %17 = alloca ptr, align 8
  %18 = alloca ptr, align 8
  %19 = alloca i8, align 1
  %20 = alloca ptr, align 8
  %21 = alloca ptr, align 8
  %22 = alloca i64, align 8
  %23 = alloca i32, align 4
  %24 = alloca ptr, align 8
  %25 = alloca ptr, align 8
  %26 = alloca i32, align 4
  store ptr %0, ptr %12, align 8, !tbaa !22
  store ptr %1, ptr %13, align 8, !tbaa !22
  store ptr %2, ptr %14, align 8, !tbaa !32
  store ptr %3, ptr %15, align 8, !tbaa !32
  store ptr %4, ptr %16, align 8, !tbaa !32
  store ptr %5, ptr %17, align 8, !tbaa !32
  store ptr %6, ptr %18, align 8, !tbaa !32
  store i8 %7, ptr %19, align 1, !tbaa !29
  store ptr %8, ptr %20, align 8, !tbaa !67
  store ptr %9, ptr %21, align 8, !tbaa !67
  call void @llvm.lifetime.start.p0(i64 8, ptr %22) #9
  call void @llvm.lifetime.start.p0(i64 4, ptr %23) #9
  store i64 0, ptr %22, align 8, !tbaa !23
  br label %27

27:                                               ; preds = %84, %10
  %28 = load i64, ptr %22, align 8, !tbaa !23
  %29 = load ptr, ptr %14, align 8, !tbaa !32
  %30 = getelementptr i64, ptr %29, i64 0
  %31 = load i64, ptr %30, align 8, !tbaa !23
  %32 = icmp slt i64 %28, %31
  br i1 %32, label %33, label %97

33:                                               ; preds = %27
  call void @llvm.lifetime.start.p0(i64 8, ptr %24) #9
  %34 = load ptr, ptr %16, align 8, !tbaa !32
  %35 = icmp ne ptr %34, null
  br i1 %35, label %36, label %48

36:                                               ; preds = %33
  %37 = load ptr, ptr %16, align 8, !tbaa !32
  %38 = getelementptr i64, ptr %37, i64 0
  %39 = load i64, ptr %38, align 8, !tbaa !23
  %40 = icmp sge i64 %39, 0
  br i1 %40, label %41, label %48

41:                                               ; preds = %36
  %42 = load ptr, ptr %12, align 8, !tbaa !22
  %43 = load ptr, ptr %42, align 8, !tbaa !22
  %44 = load ptr, ptr %16, align 8, !tbaa !32
  %45 = getelementptr i64, ptr %44, i64 0
  %46 = load i64, ptr %45, align 8, !tbaa !23
  %47 = getelementptr i8, ptr %43, i64 %46
  br label %50

48:                                               ; preds = %36, %33
  %49 = load ptr, ptr %12, align 8, !tbaa !22
  br label %50

50:                                               ; preds = %48, %41
  %51 = phi ptr [ %47, %41 ], [ %49, %48 ]
  store ptr %51, ptr %24, align 8, !tbaa !22
  call void @llvm.lifetime.start.p0(i64 8, ptr %25) #9
  %52 = load ptr, ptr %18, align 8, !tbaa !32
  %53 = icmp ne ptr %52, null
  br i1 %53, label %54, label %66

54:                                               ; preds = %50
  %55 = load ptr, ptr %18, align 8, !tbaa !32
  %56 = getelementptr i64, ptr %55, i64 0
  %57 = load i64, ptr %56, align 8, !tbaa !23
  %58 = icmp sge i64 %57, 0
  br i1 %58, label %59, label %66

59:                                               ; preds = %54
  %60 = load ptr, ptr %13, align 8, !tbaa !22
  %61 = load ptr, ptr %60, align 8, !tbaa !22
  %62 = load ptr, ptr %18, align 8, !tbaa !32
  %63 = getelementptr i64, ptr %62, i64 0
  %64 = load i64, ptr %63, align 8, !tbaa !23
  %65 = getelementptr i8, ptr %61, i64 %64
  br label %68

66:                                               ; preds = %54, %50
  %67 = load ptr, ptr %13, align 8, !tbaa !22
  br label %68

68:                                               ; preds = %66, %59
  %69 = phi ptr [ %65, %59 ], [ %67, %66 ]
  store ptr %69, ptr %25, align 8, !tbaa !22
  %70 = load ptr, ptr %24, align 8, !tbaa !22
  %71 = load ptr, ptr %25, align 8, !tbaa !22
  %72 = load i8, ptr %19, align 1, !tbaa !29
  %73 = load ptr, ptr %20, align 8, !tbaa !67
  %74 = load ptr, ptr %21, align 8, !tbaa !67
  %75 = call i32 @unpack_cmp(ptr noundef %70, ptr noundef %71, i8 noundef signext %72, ptr noundef %73, ptr noundef %74)
  store i32 %75, ptr %23, align 4, !tbaa !21
  %76 = load i32, ptr %23, align 4, !tbaa !21
  %77 = icmp sle i32 %76, 0
  br i1 %77, label %78, label %80

78:                                               ; preds = %68
  %79 = load i32, ptr %23, align 4, !tbaa !21
  store i32 %79, ptr %11, align 4
  store i32 1, ptr %26, align 4
  br label %81

80:                                               ; preds = %68
  store i32 0, ptr %26, align 4
  br label %81

81:                                               ; preds = %80, %78
  call void @llvm.lifetime.end.p0(i64 8, ptr %25) #9
  call void @llvm.lifetime.end.p0(i64 8, ptr %24) #9
  %82 = load i32, ptr %26, align 4
  switch i32 %82, label %98 [
    i32 0, label %83
  ]

83:                                               ; preds = %81
  br label %84

84:                                               ; preds = %83
  %85 = load ptr, ptr %15, align 8, !tbaa !32
  %86 = getelementptr i64, ptr %85, i64 0
  %87 = load i64, ptr %86, align 8, !tbaa !23
  %88 = load ptr, ptr %12, align 8, !tbaa !22
  %89 = getelementptr i8, ptr %88, i64 %87
  store ptr %89, ptr %12, align 8, !tbaa !22
  %90 = load ptr, ptr %17, align 8, !tbaa !32
  %91 = getelementptr i64, ptr %90, i64 0
  %92 = load i64, ptr %91, align 8, !tbaa !23
  %93 = load ptr, ptr %13, align 8, !tbaa !22
  %94 = getelementptr i8, ptr %93, i64 %92
  store ptr %94, ptr %13, align 8, !tbaa !22
  %95 = load i64, ptr %22, align 8, !tbaa !23
  %96 = add i64 %95, 1
  store i64 %96, ptr %22, align 8, !tbaa !23
  br label %27, !llvm.loop !190

97:                                               ; preds = %27
  store i32 1, ptr %11, align 4
  store i32 1, ptr %26, align 4
  br label %98

98:                                               ; preds = %97, %81
  call void @llvm.lifetime.end.p0(i64 4, ptr %23) #9
  call void @llvm.lifetime.end.p0(i64 8, ptr %22) #9
  %99 = load i32, ptr %11, align 4
  ret i32 %99
}