; Function Attrs: nounwind uwtable
define internal fastcc range(i32 -2147483648, 2) i32 @cmp_base(ptr noundef %0, ptr noundef %1, ptr noundef readonly captures(none) %2, ptr noundef readonly captures(none) %3, ptr noundef readonly %4, ptr noundef readonly captures(none) %5, ptr noundef readonly %6, i8 noundef signext %7, ptr noundef readonly captures(none) %8, ptr noundef readonly captures(none) %9) unnamed_addr #0 {
  %11 = load i64, ptr %2, align 8, !tbaa !124
  %12 = icmp sgt i64 %11, 0
  br i1 %12, label %.lr.ph, label %._crit_edge

.lr.ph:                                           ; preds = %10
  %.not = icmp eq ptr %4, null
  %.not34 = icmp eq ptr %6, null
  br i1 %.not, label %.lr.ph.split.us, label %.lr.ph.split

.lr.ph.split.us:                                  ; preds = %.lr.ph
  br i1 %.not34, label %.lr.ph.split.us.split.us, label %.lr.ph.split.us.split

.lr.ph.split.us.split.us:                         ; preds = %.lr.ph.split.us, %15
  %.02637.us.us = phi ptr [ %17, %15 ], [ %0, %.lr.ph.split.us ]
  %.02736.us.us = phi ptr [ %19, %15 ], [ %1, %.lr.ph.split.us ]
  %.02835.us.us = phi i64 [ %20, %15 ], [ 0, %.lr.ph.split.us ]
  %13 = tail call fastcc i32 @unpack_cmp(ptr noundef %.02637.us.us, ptr noundef %.02736.us.us, i8 noundef signext %7, ptr noundef %8, ptr noundef %9)
  %14 = icmp sgt i32 %13, 0
  br i1 %14, label %15, label %._crit_edge

15:                                               ; preds = %.lr.ph.split.us.split.us
  %16 = load i64, ptr %3, align 8, !tbaa !124
  %17 = getelementptr i8, ptr %.02637.us.us, i64 %16
  %18 = load i64, ptr %5, align 8, !tbaa !124
  %19 = getelementptr i8, ptr %.02736.us.us, i64 %18
  %20 = add nuw nsw i64 %.02835.us.us, 1
  %21 = load i64, ptr %2, align 8, !tbaa !124
  %22 = icmp slt i64 %20, %21
  br i1 %22, label %.lr.ph.split.us.split.us, label %._crit_edge, !llvm.loop !175

.lr.ph.split.us.split:                            ; preds = %.lr.ph.split.us, %32
  %.02637.us = phi ptr [ %34, %32 ], [ %0, %.lr.ph.split.us ]
  %.02736.us = phi ptr [ %36, %32 ], [ %1, %.lr.ph.split.us ]
  %.02835.us = phi i64 [ %37, %32 ], [ 0, %.lr.ph.split.us ]
  %23 = load i64, ptr %6, align 8, !tbaa !124
  %24 = icmp sgt i64 %23, -1
  br i1 %24, label %25, label %28

25:                                               ; preds = %.lr.ph.split.us.split
  %26 = load ptr, ptr %.02736.us, align 8, !tbaa !132
  %27 = getelementptr i8, ptr %26, i64 %23
  br label %28

28:                                               ; preds = %25, %.lr.ph.split.us.split
  %29 = phi ptr [ %27, %25 ], [ %.02736.us, %.lr.ph.split.us.split ]
  %30 = tail call fastcc i32 @unpack_cmp(ptr noundef %.02637.us, ptr noundef %29, i8 noundef signext %7, ptr noundef %8, ptr noundef %9)
  %31 = icmp sgt i32 %30, 0
  br i1 %31, label %32, label %._crit_edge

32:                                               ; preds = %28
  %33 = load i64, ptr %3, align 8, !tbaa !124
  %34 = getelementptr i8, ptr %.02637.us, i64 %33
  %35 = load i64, ptr %5, align 8, !tbaa !124
  %36 = getelementptr i8, ptr %.02736.us, i64 %35
  %37 = add nuw nsw i64 %.02835.us, 1
  %38 = load i64, ptr %2, align 8, !tbaa !124
  %39 = icmp slt i64 %37, %38
  br i1 %39, label %.lr.ph.split.us.split, label %._crit_edge, !llvm.loop !175

.lr.ph.split:                                     ; preds = %.lr.ph
  br i1 %.not34, label %.lr.ph.split.split.us, label %.lr.ph.split.split

.lr.ph.split.split.us:                            ; preds = %.lr.ph.split, %49
  %.02637.us41 = phi ptr [ %51, %49 ], [ %0, %.lr.ph.split ]
  %.02736.us42 = phi ptr [ %53, %49 ], [ %1, %.lr.ph.split ]
  %.02835.us43 = phi i64 [ %54, %49 ], [ 0, %.lr.ph.split ]
  %40 = load i64, ptr %4, align 8, !tbaa !124
  %41 = icmp sgt i64 %40, -1
  br i1 %41, label %42, label %45

42:                                               ; preds = %.lr.ph.split.split.us
  %43 = load ptr, ptr %.02637.us41, align 8, !tbaa !132
  %44 = getelementptr i8, ptr %43, i64 %40
  br label %45

45:                                               ; preds = %42, %.lr.ph.split.split.us
  %46 = phi ptr [ %44, %42 ], [ %.02637.us41, %.lr.ph.split.split.us ]
  %47 = tail call fastcc i32 @unpack_cmp(ptr noundef %46, ptr noundef %.02736.us42, i8 noundef signext %7, ptr noundef %8, ptr noundef %9)
  %48 = icmp sgt i32 %47, 0
  br i1 %48, label %49, label %._crit_edge

49:                                               ; preds = %45
  %50 = load i64, ptr %3, align 8, !tbaa !124
  %51 = getelementptr i8, ptr %.02637.us41, i64 %50
  %52 = load i64, ptr %5, align 8, !tbaa !124
  %53 = getelementptr i8, ptr %.02736.us42, i64 %52
  %54 = add nuw nsw i64 %.02835.us43, 1
  %55 = load i64, ptr %2, align 8, !tbaa !124
  %56 = icmp slt i64 %54, %55
  br i1 %56, label %.lr.ph.split.split.us, label %._crit_edge, !llvm.loop !175

.lr.ph.split.split:                               ; preds = %.lr.ph.split, %73
  %.02637 = phi ptr [ %75, %73 ], [ %0, %.lr.ph.split ]
  %.02736 = phi ptr [ %77, %73 ], [ %1, %.lr.ph.split ]
  %.02835 = phi i64 [ %78, %73 ], [ 0, %.lr.ph.split ]
  %57 = load i64, ptr %4, align 8, !tbaa !124
  %58 = icmp sgt i64 %57, -1
  br i1 %58, label %59, label %62

59:                                               ; preds = %.lr.ph.split.split
  %60 = load ptr, ptr %.02637, align 8, !tbaa !132
  %61 = getelementptr i8, ptr %60, i64 %57
  br label %62

62:                                               ; preds = %.lr.ph.split.split, %59
  %63 = phi ptr [ %61, %59 ], [ %.02637, %.lr.ph.split.split ]
  %64 = load i64, ptr %6, align 8, !tbaa !124
  %65 = icmp sgt i64 %64, -1
  br i1 %65, label %66, label %69

66:                                               ; preds = %62
  %67 = load ptr, ptr %.02736, align 8, !tbaa !132
  %68 = getelementptr i8, ptr %67, i64 %64
  br label %69

69:                                               ; preds = %62, %66
  %70 = phi ptr [ %68, %66 ], [ %.02736, %62 ]
  %71 = tail call fastcc i32 @unpack_cmp(ptr noundef %63, ptr noundef %70, i8 noundef signext %7, ptr noundef %8, ptr noundef %9)
  %72 = icmp sgt i32 %71, 0
  br i1 %72, label %73, label %._crit_edge

73:                                               ; preds = %69
  %74 = load i64, ptr %3, align 8, !tbaa !124
  %75 = getelementptr i8, ptr %.02637, i64 %74
  %76 = load i64, ptr %5, align 8, !tbaa !124
  %77 = getelementptr i8, ptr %.02736, i64 %76
  %78 = add nuw nsw i64 %.02835, 1
  %79 = load i64, ptr %2, align 8, !tbaa !124
  %80 = icmp slt i64 %78, %79
  br i1 %80, label %.lr.ph.split.split, label %._crit_edge, !llvm.loop !175

._crit_edge:                                      ; preds = %69, %73, %45, %49, %28, %32, %.lr.ph.split.us.split.us, %15, %10
  %.2 = phi i32 [ 1, %10 ], [ 1, %15 ], [ %13, %.lr.ph.split.us.split.us ], [ 1, %32 ], [ %30, %28 ], [ 1, %49 ], [ %47, %45 ], [ 1, %73 ], [ %71, %69 ]
  ret i32 %.2
}